; ModuleID = '20/555.c'
source_filename = "20/555.c"
target datalayout = "e-m:e-p270:32:32-p271:32:32-p272:64:64-i64:64-f80:128-n8:16:32:64-S128"
target triple = "x86_64-pc-linux-gnu"

@.str = private unnamed_addr constant [6 x i8] c"%s %s\00", align 1
@.str.1 = private unnamed_addr constant [4 x i8] c"%s\0A\00", align 1

; Function Attrs: noinline nounwind uwtable
define dso_local void @main() #0 {
  %1 = alloca [100 x [11 x i8]], align 16
  %2 = alloca [100 x [4 x i8]], align 16
  %3 = alloca [100 x [20 x i8]], align 16
  %4 = alloca i8*, align 8
  %5 = alloca i8*, align 8
  %6 = alloca i8*, align 8
  %7 = alloca i32, align 4
  %8 = alloca i32, align 4
  %9 = alloca i32, align 4
  %10 = alloca i32, align 4
  %11 = bitcast [100 x [11 x i8]]* %1 to i8*
  call void @llvm.memset.p0i8.i64(i8* align 16 %11, i8 0, i64 1100, i1 false)
  %12 = bitcast [100 x [4 x i8]]* %2 to i8*
  call void @llvm.memset.p0i8.i64(i8* align 16 %12, i8 0, i64 400, i1 false)
  %13 = bitcast [100 x [20 x i8]]* %3 to i8*
  call void @llvm.memset.p0i8.i64(i8* align 16 %13, i8 0, i64 2000, i1 false)
  store i32 1, i32* %8, align 4
  br label %14

14:                                               ; preds = %25, %0
  %15 = load i32, i32* %8, align 4
  %16 = sext i32 %15 to i64
  %17 = getelementptr inbounds [100 x [11 x i8]], [100 x [11 x i8]]* %1, i64 0, i64 %16
  %18 = getelementptr inbounds [11 x i8], [11 x i8]* %17, i64 0, i64 0
  %19 = load i32, i32* %8, align 4
  %20 = sext i32 %19 to i64
  %21 = getelementptr inbounds [100 x [4 x i8]], [100 x [4 x i8]]* %2, i64 0, i64 %20
  %22 = getelementptr inbounds [4 x i8], [4 x i8]* %21, i64 0, i64 0
  %23 = call i32 (i8*, ...) @__isoc99_scanf(i8* getelementptr inbounds ([6 x i8], [6 x i8]* @.str, i64 0, i64 0), i8* %18, i8* %22)
  %24 = icmp ne i32 %23, -1
  br i1 %24, label %25, label %28

25:                                               ; preds = %14
  %26 = load i32, i32* %8, align 4
  %27 = add nsw i32 %26, 1
  store i32 %27, i32* %8, align 4
  br label %14

28:                                               ; preds = %14
  store i32 1, i32* %7, align 4
  br label %29

29:                                               ; preds = %138, %28
  %30 = load i32, i32* %7, align 4
  %31 = load i32, i32* %8, align 4
  %32 = icmp sle i32 %30, %31
  br i1 %32, label %33, label %141

33:                                               ; preds = %29
  %34 = load i32, i32* %7, align 4
  %35 = sext i32 %34 to i64
  %36 = getelementptr inbounds [100 x [11 x i8]], [100 x [11 x i8]]* %1, i64 0, i64 %35
  %37 = getelementptr inbounds [11 x i8], [11 x i8]* %36, i64 0, i64 0
  store i8* %37, i8** %4, align 8
  %38 = load i32, i32* %7, align 4
  %39 = sext i32 %38 to i64
  %40 = getelementptr inbounds [100 x [11 x i8]], [100 x [11 x i8]]* %1, i64 0, i64 %39
  %41 = getelementptr inbounds [11 x i8], [11 x i8]* %40, i64 0, i64 0
  %42 = load i8, i8* %41, align 1
  %43 = sext i8 %42 to i32
  store i32 %43, i32* %9, align 4
  br label %44

44:                                               ; preds = %61, %33
  %45 = load i8*, i8** %4, align 8
  %46 = load i8, i8* %45, align 1
  %47 = sext i8 %46 to i32
  %48 = icmp ne i32 %47, 0
  br i1 %48, label %49, label %64

49:                                               ; preds = %44
  %50 = load i8*, i8** %4, align 8
  %51 = load i8, i8* %50, align 1
  %52 = sext i8 %51 to i32
  %53 = load i32, i32* %9, align 4
  %54 = icmp sgt i32 %52, %53
  br i1 %54, label %55, label %60

55:                                               ; preds = %49
  %56 = load i8*, i8** %4, align 8
  %57 = load i8, i8* %56, align 1
  %58 = sext i8 %57 to i32
  store i32 %58, i32* %9, align 4
  %59 = load i8*, i8** %4, align 8
  store i8* %59, i8** %5, align 8
  br label %60

60:                                               ; preds = %55, %49
  br label %61

61:                                               ; preds = %60
  %62 = load i8*, i8** %4, align 8
  %63 = getelementptr inbounds i8, i8* %62, i32 1
  store i8* %63, i8** %4, align 8
  br label %44

64:                                               ; preds = %44
  %65 = load i32, i32* %7, align 4
  %66 = sext i32 %65 to i64
  %67 = getelementptr inbounds [100 x [11 x i8]], [100 x [11 x i8]]* %1, i64 0, i64 %66
  %68 = getelementptr inbounds [11 x i8], [11 x i8]* %67, i64 0, i64 0
  store i8* %68, i8** %4, align 8
  store i32 0, i32* %10, align 4
  br label %69

69:                                               ; preds = %83, %64
  %70 = load i8*, i8** %4, align 8
  %71 = load i8*, i8** %5, align 8
  %72 = icmp ule i8* %70, %71
  br i1 %72, label %73, label %86

73:                                               ; preds = %69
  %74 = load i8*, i8** %4, align 8
  %75 = getelementptr inbounds i8, i8* %74, i32 1
  store i8* %75, i8** %4, align 8
  %76 = load i8, i8* %74, align 1
  %77 = load i32, i32* %7, align 4
  %78 = sext i32 %77 to i64
  %79 = getelementptr inbounds [100 x [20 x i8]], [100 x [20 x i8]]* %3, i64 0, i64 %78
  %80 = load i32, i32* %10, align 4
  %81 = sext i32 %80 to i64
  %82 = getelementptr inbounds [20 x i8], [20 x i8]* %79, i64 0, i64 %81
  store i8 %76, i8* %82, align 1
  br label %83

83:                                               ; preds = %73
  %84 = load i32, i32* %10, align 4
  %85 = add nsw i32 %84, 1
  store i32 %85, i32* %10, align 4
  br label %69

86:                                               ; preds = %69
  %87 = load i32, i32* %7, align 4
  %88 = sext i32 %87 to i64
  %89 = getelementptr inbounds [100 x [4 x i8]], [100 x [4 x i8]]* %2, i64 0, i64 %88
  %90 = getelementptr inbounds [4 x i8], [4 x i8]* %89, i64 0, i64 0
  %91 = load i8, i8* %90, align 4
  %92 = load i32, i32* %7, align 4
  %93 = sext i32 %92 to i64
  %94 = getelementptr inbounds [100 x [20 x i8]], [100 x [20 x i8]]* %3, i64 0, i64 %93
  %95 = load i32, i32* %10, align 4
  %96 = sext i32 %95 to i64
  %97 = getelementptr inbounds [20 x i8], [20 x i8]* %94, i64 0, i64 %96
  store i8 %91, i8* %97, align 1
  %98 = load i32, i32* %7, align 4
  %99 = sext i32 %98 to i64
  %100 = getelementptr inbounds [100 x [4 x i8]], [100 x [4 x i8]]* %2, i64 0, i64 %99
  %101 = getelementptr inbounds [4 x i8], [4 x i8]* %100, i64 0, i64 1
  %102 = load i8, i8* %101, align 1
  %103 = load i32, i32* %7, align 4
  %104 = sext i32 %103 to i64
  %105 = getelementptr inbounds [100 x [20 x i8]], [100 x [20 x i8]]* %3, i64 0, i64 %104
  %106 = load i32, i32* %10, align 4
  %107 = add nsw i32 %106, 1
  %108 = sext i32 %107 to i64
  %109 = getelementptr inbounds [20 x i8], [20 x i8]* %105, i64 0, i64 %108
  store i8 %102, i8* %109, align 1
  %110 = load i32, i32* %7, align 4
  %111 = sext i32 %110 to i64
  %112 = getelementptr inbounds [100 x [4 x i8]], [100 x [4 x i8]]* %2, i64 0, i64 %111
  %113 = getelementptr inbounds [4 x i8], [4 x i8]* %112, i64 0, i64 2
  %114 = load i8, i8* %113, align 2
  %115 = load i32, i32* %7, align 4
  %116 = sext i32 %115 to i64
  %117 = getelementptr inbounds [100 x [20 x i8]], [100 x [20 x i8]]* %3, i64 0, i64 %116
  %118 = load i32, i32* %10, align 4
  %119 = add nsw i32 %118, 2
  %120 = sext i32 %119 to i64
  %121 = getelementptr inbounds [20 x i8], [20 x i8]* %117, i64 0, i64 %120
  store i8 %114, i8* %121, align 1
  %122 = load i32, i32* %7, align 4
  %123 = sext i32 %122 to i64
  %124 = getelementptr inbounds [100 x [20 x i8]], [100 x [20 x i8]]* %3, i64 0, i64 %123
  %125 = getelementptr inbounds [20 x i8], [20 x i8]* %124, i64 0, i64 0
  %126 = load i32, i32* %10, align 4
  %127 = sext i32 %126 to i64
  %128 = getelementptr inbounds i8, i8* %125, i64 %127
  %129 = getelementptr inbounds i8, i8* %128, i64 3
  store i8* %129, i8** %6, align 8
  %130 = load i8*, i8** %6, align 8
  %131 = load i8*, i8** %4, align 8
  %132 = call i8* @strcpy(i8* %130, i8* %131) #4
  %133 = load i32, i32* %7, align 4
  %134 = sext i32 %133 to i64
  %135 = getelementptr inbounds [100 x [20 x i8]], [100 x [20 x i8]]* %3, i64 0, i64 %134
  %136 = getelementptr inbounds [20 x i8], [20 x i8]* %135, i64 0, i64 0
  %137 = call i32 (i8*, ...) @printf(i8* getelementptr inbounds ([4 x i8], [4 x i8]* @.str.1, i64 0, i64 0), i8* %136)
  br label %138

138:                                              ; preds = %86
  %139 = load i32, i32* %7, align 4
  %140 = add nsw i32 %139, 1
  store i32 %140, i32* %7, align 4
  br label %29

141:                                              ; preds = %29
  ret void
}

; Function Attrs: argmemonly nounwind willreturn
declare void @llvm.memset.p0i8.i64(i8* nocapture writeonly, i8, i64, i1 immarg) #1

declare dso_local i32 @__isoc99_scanf(i8*, ...) #2

; Function Attrs: nounwind
declare dso_local i8* @strcpy(i8*, i8*) #3

declare dso_local i32 @printf(i8*, ...) #2


!llvm.module.flags = !{!0}
!llvm.ident = !{!1}

!0 = !{i32 1, !"wchar_size", i32 4}
!1 = !{!"clang version 10.0.0-4ubuntu1 "}
